(dp1
S'failed'
p2
(lp3
S'1'
asS'source_names'
p4
(lp5
S'.'
asS'ids'
p6
(dp7
I1
(S'/home/konstantinos/.local/share/QGIS/QGIS3/profiles/default/python/plugins/citydb_loader/test'
S'citydb_loader.test'
Ntp8
ss.